; Function Attrs: mustprogress nofree nosync nounwind willreturn memory(read, inaccessiblemem: none) uwtable
define hidden noundef i32 @_ZNK10InlineTree5countEv(ptr nocapture noundef nonnull readonly align 8 dereferenceable(81) %0) local_unnamed_addr #4 align 2 {
  %2 = getelementptr inbounds i8, ptr %0, i64 48
  %3 = load i32, ptr %2, align 8
  %4 = icmp sgt i32 %3, 0
  br i1 %4, label %.lr.ph, label %._crit_edge

.lr.ph:                                           ; preds = %1
  %5 = getelementptr inbounds i8, ptr %0, i64 56
  %6 = load ptr, ptr %5, align 8
  %wide.trip.count = zext nneg i32 %3 to i64
  br label %7

7:                                                ; preds = %.lr.ph, %7
  %indvars.iv = phi i64 [ 0, %.lr.ph ], [ %indvars.iv.next, %7 ]
  %.056 = phi i32 [ 1, %.lr.ph ], [ %11, %7 ]
  %8 = getelementptr inbounds ptr, ptr %6, i64 %indvars.iv
  %9 = load ptr, ptr %8, align 8
  %10 = tail call noundef i32 @_ZNK10InlineTree5countEv(ptr noundef nonnull align 8 dereferenceable(81) %9)
  %11 = add nsw i32 %10, %.056
  %indvars.iv.next = add nuw nsw i64 %indvars.iv, 1
  %exitcond.not = icmp eq i64 %indvars.iv.next, %wide.trip.count
  br i1 %exitcond.not, label %._crit_edge, label %7, !llvm.loop !12

._crit_edge:                                      ; preds = %7, %1
  %.05.lcssa = phi i32 [ 1, %1 ], [ %11, %7 ]
  ret i32 %.05.lcssa
}